target datalayout = "e-m:e-p270:32:32-p271:32:32-p272:64:64-i64:64-i128:128-f80:128-n8:16:32:64-S128"
target triple = "x86_64-pc-linux-gnu"

%"class.std::basic_string_view.9" = type { i64, ptr }

@.str = private unnamed_addr constant [8 x i8] c"success\00", align 1
@.str.1 = private unnamed_addr constant [15 x i8] c"invalid_prefix\00", align 1
@.str.2 = private unnamed_addr constant [20 x i8] c"eof_version_unknown\00", align 1
@.str.3 = private unnamed_addr constant [24 x i8] c"incomplete_section_size\00", align 1
@.str.4 = private unnamed_addr constant [26 x i8] c"incomplete_section_number\00", align 1
@.str.5 = private unnamed_addr constant [26 x i8] c"header_terminator_missing\00", align 1
@.str.6 = private unnamed_addr constant [21 x i8] c"type_section_missing\00", align 1
@.str.7 = private unnamed_addr constant [21 x i8] c"code_section_missing\00", align 1
@.str.8 = private unnamed_addr constant [21 x i8] c"data_section_missing\00", align 1
@.str.9 = private unnamed_addr constant [18 x i8] c"zero_section_size\00", align 1
@.str.10 = private unnamed_addr constant [31 x i8] c"section_headers_not_terminated\00", align 1
@.str.11 = private unnamed_addr constant [28 x i8] c"invalid_section_bodies_size\00", align 1
@.str.12 = private unnamed_addr constant [26 x i8] c"unreachable_code_sections\00", align 1
@.str.13 = private unnamed_addr constant [22 x i8] c"undefined_instruction\00", align 1
@.str.14 = private unnamed_addr constant [22 x i8] c"truncated_instruction\00", align 1
@.str.15 = private unnamed_addr constant [26 x i8] c"invalid_rjump_destination\00", align 1
@.str.16 = private unnamed_addr constant [23 x i8] c"too_many_code_sections\00", align 1
@.str.17 = private unnamed_addr constant [26 x i8] c"invalid_type_section_size\00", align 1
@.str.18 = private unnamed_addr constant [27 x i8] c"invalid_first_section_type\00", align 1
@.str.19 = private unnamed_addr constant [27 x i8] c"invalid_max_stack_increase\00", align 1
@.str.20 = private unnamed_addr constant [31 x i8] c"max_stack_increase_above_limit\00", align 1
@.str.21 = private unnamed_addr constant [31 x i8] c"inputs_outputs_num_above_limit\00", align 1
@.str.22 = private unnamed_addr constant [27 x i8] c"no_terminating_instruction\00", align 1
@.str.23 = private unnamed_addr constant [22 x i8] c"stack_height_mismatch\00", align 1
@.str.24 = private unnamed_addr constant [35 x i8] c"stack_higher_than_outputs_required\00", align 1
@.str.25 = private unnamed_addr constant [25 x i8] c"unreachable_instructions\00", align 1
@.str.26 = private unnamed_addr constant [16 x i8] c"stack_underflow\00", align 1
@.str.27 = private unnamed_addr constant [15 x i8] c"stack_overflow\00", align 1
@.str.28 = private unnamed_addr constant [27 x i8] c"invalid_code_section_index\00", align 1
@.str.29 = private unnamed_addr constant [24 x i8] c"invalid_dataloadn_index\00", align 1
@.str.30 = private unnamed_addr constant [39 x i8] c"jumpf_destination_incompatible_outputs\00", align 1
@.str.31 = private unnamed_addr constant [27 x i8] c"invalid_non_returning_flag\00", align 1
@.str.32 = private unnamed_addr constant [32 x i8] c"callf_to_non_returning_function\00", align 1
@.str.33 = private unnamed_addr constant [28 x i8] c"too_many_container_sections\00", align 1
@.str.34 = private unnamed_addr constant [32 x i8] c"invalid_container_section_index\00", align 1
@.str.35 = private unnamed_addr constant [35 x i8] c"eofcreate_with_truncated_container\00", align 1
@.str.36 = private unnamed_addr constant [29 x i8] c"toplevel_container_truncated\00", align 1
@.str.37 = private unnamed_addr constant [25 x i8] c"ambiguous_container_kind\00", align 1
@.str.38 = private unnamed_addr constant [28 x i8] c"incompatible_container_kind\00", align 1
@.str.39 = private unnamed_addr constant [27 x i8] c"container_size_above_limit\00", align 1
@.str.40 = private unnamed_addr constant [26 x i8] c"unreferenced_subcontainer\00", align 1
@.str.41 = private unnamed_addr constant [10 x i8] c"<unknown>\00", align 1

; Function Attrs: mustprogress nounwind uwtable
define linkonce_odr hidden noundef zeroext i1 @_ZN9__gnu_cxx11char_traitsIcE2eqERKcS3_(ptr noundef nonnull align 1 dereferenceable(1) %0, ptr noundef nonnull align 1 dereferenceable(1) %1) #0 comdat align 2 {
  %3 = alloca ptr, align 8
  %4 = alloca ptr, align 8
  store ptr %0, ptr %3, align 8, !tbaa !27
  store ptr %1, ptr %4, align 8, !tbaa !27
  %5 = load ptr, ptr %3, align 8, !tbaa !27, !nonnull !24
  %6 = load i8, ptr %5, align 1, !tbaa !29
  %7 = sext i8 %6 to i32
  %8 = load ptr, ptr %4, align 8, !tbaa !27, !nonnull !24
  %9 = load i8, ptr %8, align 1, !tbaa !29
  %10 = sext i8 %9 to i32
  %11 = icmp eq i32 %7, %10
  ret i1 %11
}

; Function Attrs: mustprogress nounwind uwtable
define linkonce_odr hidden noundef i64 @_ZN9__gnu_cxx11char_traitsIcE6lengthEPKc(ptr noundef %0) #0 comdat align 2 {
  %2 = alloca ptr, align 8
  %3 = alloca i64, align 8
  %4 = alloca i8, align 1
  store ptr %0, ptr %2, align 8, !tbaa !27
  call void @llvm.lifetime.start.p0(ptr %3) #15
  store i64 0, ptr %3, align 8, !tbaa !8
  br label %5

5:                                                ; preds = %11, %1
  %6 = load ptr, ptr %2, align 8, !tbaa !27
  %7 = load i64, ptr %3, align 8, !tbaa !8
  %8 = getelementptr inbounds nuw i8, ptr %6, i64 %7
  call void @llvm.lifetime.start.p0(ptr %4) #15
  store i8 0, ptr %4, align 1, !tbaa !29
  %9 = call noundef zeroext i1 @_ZN9__gnu_cxx11char_traitsIcE2eqERKcS3_(ptr noundef nonnull align 1 dereferenceable(1) %8, ptr noundef nonnull align 1 dereferenceable(1) %4)
  %10 = xor i1 %9, true
  call void @llvm.lifetime.end.p0(ptr %4) #15
  br i1 %10, label %11, label %14

11:                                               ; preds = %5
  %12 = load i64, ptr %3, align 8, !tbaa !8
  %13 = add i64 %12, 1
  store i64 %13, ptr %3, align 8, !tbaa !8
  br label %5, !llvm.loop !588

14:                                               ; preds = %5
  %15 = load i64, ptr %3, align 8, !tbaa !8
  call void @llvm.lifetime.end.p0(ptr %3) #15
  ret i64 %15
}

; Function Attrs: alwaysinline mustprogress nounwind uwtable
define linkonce_odr noundef zeroext i1 @_ZSt19__constant_string_pIcEbPKT_(ptr noundef %0) #5 comdat {
  %2 = alloca ptr, align 8
  store ptr %0, ptr %2, align 8, !tbaa !27
  ret i1 false
}

; Function Attrs: mustprogress nounwind uwtable
define linkonce_odr hidden noundef i64 @_ZNSt11char_traitsIcE6lengthEPKc(ptr noundef %0) #0 comdat align 2 {
  %2 = alloca i64, align 8
  %3 = alloca ptr, align 8
  store ptr %0, ptr %3, align 8, !tbaa !27
  %4 = load ptr, ptr %3, align 8, !tbaa !27
  %5 = call noundef zeroext i1 @_ZSt19__constant_string_pIcEbPKT_(ptr noundef %4)
  br i1 %5, label %6, label %9

6:                                                ; preds = %1
  %7 = load ptr, ptr %3, align 8, !tbaa !27
  %8 = call noundef i64 @_ZN9__gnu_cxx11char_traitsIcE6lengthEPKc(ptr noundef %7)
  store i64 %8, ptr %2, align 8
  br label %12

9:                                                ; preds = %1
  %10 = load ptr, ptr %3, align 8, !tbaa !27
  %11 = call i64 @strlen(ptr noundef %10) #15
  store i64 %11, ptr %2, align 8
  br label %12

12:                                               ; preds = %9, %6
  %13 = load i64, ptr %2, align 8
  ret i64 %13
}

; Function Attrs: mustprogress nounwind uwtable
define linkonce_odr hidden noundef i64 @_ZNKSt17basic_string_viewIcSt11char_traitsIcEE4sizeEv(ptr noundef nonnull align 8 dereferenceable(16) %0) #0 comdat align 2 {
  %2 = alloca ptr, align 8
  store ptr %0, ptr %2, align 8, !tbaa !110
  %3 = load ptr, ptr %2, align 8
  %4 = getelementptr inbounds nuw %"class.std::basic_string_view.9", ptr %3, i32 0, i32 0
  %5 = load i64, ptr %4, align 8, !tbaa !112
  ret i64 %5
}

; Function Attrs: mustprogress nounwind uwtable
define linkonce_odr hidden noundef ptr @_ZNKSt17basic_string_viewIcSt11char_traitsIcEE4dataEv(ptr noundef nonnull align 8 dereferenceable(16) %0) #0 comdat align 2 {
  %2 = alloca ptr, align 8
  store ptr %0, ptr %2, align 8, !tbaa !110
  %3 = load ptr, ptr %2, align 8
  %4 = getelementptr inbounds nuw %"class.std::basic_string_view.9", ptr %3, i32 0, i32 1
  %5 = load ptr, ptr %4, align 8, !tbaa !114
  ret ptr %5
}

; Function Attrs: mustprogress nounwind uwtable
define linkonce_odr hidden void @_ZNSt17basic_string_viewIcSt11char_traitsIcEEC2EPKc(ptr noundef nonnull align 8 dereferenceable(16) %0, ptr noundef nonnull %1) unnamed_addr #0 comdat align 2 {
  %3 = alloca ptr, align 8
  %4 = alloca ptr, align 8
  store ptr %0, ptr %3, align 8, !tbaa !110
  store ptr %1, ptr %4, align 8, !tbaa !27
  %5 = load ptr, ptr %3, align 8
  %6 = getelementptr inbounds nuw %"class.std::basic_string_view.9", ptr %5, i32 0, i32 0
  %7 = load ptr, ptr %4, align 8, !tbaa !27
  %8 = call noundef i64 @_ZNSt11char_traitsIcE6lengthEPKc(ptr noundef %7)
  store i64 %8, ptr %6, align 8, !tbaa !112
  %9 = getelementptr inbounds nuw %"class.std::basic_string_view.9", ptr %5, i32 0, i32 1
  %10 = load ptr, ptr %4, align 8, !tbaa !27
  store ptr %10, ptr %9, align 8, !tbaa !114
  ret void
}

; Function Attrs: inlinehint mustprogress nounwind uwtable
define linkonce_odr noundef nonnull align 8 dereferenceable(8) ptr @_ZStlsIcSt11char_traitsIcEERSt13basic_ostreamIT_T0_ES6_St17basic_string_viewIS3_S4_E(ptr noundef nonnull align 8 dereferenceable(8) %0, i64 %1, ptr %2) #3 comdat {
  %4 = alloca %"class.std::basic_string_view.9", align 8
  %5 = alloca ptr, align 8
  %6 = getelementptr inbounds nuw { i64, ptr }, ptr %4, i32 0, i32 0
  store i64 %1, ptr %6, align 8
  %7 = getelementptr inbounds nuw { i64, ptr }, ptr %4, i32 0, i32 1
  store ptr %2, ptr %7, align 8
  store ptr %0, ptr %5, align 8, !tbaa !115
  %8 = load ptr, ptr %5, align 8, !tbaa !115, !nonnull !24, !align !25
  %9 = call noundef ptr @_ZNKSt17basic_string_viewIcSt11char_traitsIcEE4dataEv(ptr noundef nonnull align 8 dereferenceable(16) %4) #15
  %10 = call noundef i64 @_ZNKSt17basic_string_viewIcSt11char_traitsIcEE4sizeEv(ptr noundef nonnull align 8 dereferenceable(16) %4) #15
  %11 = call noundef nonnull align 8 dereferenceable(8) ptr @_ZSt16__ostream_insertIcSt11char_traitsIcEERSt13basic_ostreamIT_T0_ES6_PKS3_l(ptr noundef nonnull align 8 dereferenceable(8) %8, ptr noundef %9, i64 noundef %10)
  ret ptr %11
}

; Function Attrs: mustprogress nounwind uwtable
define { i64, ptr } @_ZN6evmone17get_error_messageENS_18EOFValidationErrorE(i32 noundef %0) #0 {
  %2 = alloca %"class.std::basic_string_view.9", align 8
  %3 = alloca i32, align 4
  store i32 %0, ptr %3, align 4, !tbaa !87
  %4 = load i32, ptr %3, align 4, !tbaa !87
  switch i32 %4, label %46 [
    i32 0, label %5
    i32 1, label %6
    i32 2, label %7
    i32 3, label %8
    i32 4, label %9
    i32 5, label %10
    i32 6, label %11
    i32 7, label %12
    i32 8, label %13
    i32 9, label %14
    i32 10, label %15
    i32 11, label %16
    i32 12, label %17
    i32 13, label %18
    i32 14, label %19
    i32 15, label %20
    i32 16, label %21
    i32 17, label %22
    i32 18, label %23
    i32 19, label %24
    i32 23, label %25
    i32 24, label %26
    i32 20, label %27
    i32 21, label %28
    i32 22, label %29
    i32 25, label %30
    i32 26, label %31
    i32 27, label %32
    i32 28, label %33
    i32 29, label %34
    i32 30, label %35
    i32 31, label %36
    i32 32, label %37
    i32 33, label %38
    i32 34, label %39
    i32 35, label %40
    i32 36, label %41
    i32 37, label %42
    i32 38, label %43
    i32 39, label %44
    i32 40, label %45
  ]

5:                                                ; preds = %1
  call void @_ZNSt17basic_string_viewIcSt11char_traitsIcEEC2EPKc(ptr noundef nonnull align 8 dereferenceable(16) %2, ptr noundef @.str) #15
  br label %47

6:                                                ; preds = %1
  call void @_ZNSt17basic_string_viewIcSt11char_traitsIcEEC2EPKc(ptr noundef nonnull align 8 dereferenceable(16) %2, ptr noundef @.str.1) #15
  br label %47

7:                                                ; preds = %1
  call void @_ZNSt17basic_string_viewIcSt11char_traitsIcEEC2EPKc(ptr noundef nonnull align 8 dereferenceable(16) %2, ptr noundef @.str.2) #15
  br label %47

8:                                                ; preds = %1
  call void @_ZNSt17basic_string_viewIcSt11char_traitsIcEEC2EPKc(ptr noundef nonnull align 8 dereferenceable(16) %2, ptr noundef @.str.3) #15
  br label %47

9:                                                ; preds = %1
  call void @_ZNSt17basic_string_viewIcSt11char_traitsIcEEC2EPKc(ptr noundef nonnull align 8 dereferenceable(16) %2, ptr noundef @.str.4) #15
  br label %47

10:                                               ; preds = %1
  call void @_ZNSt17basic_string_viewIcSt11char_traitsIcEEC2EPKc(ptr noundef nonnull align 8 dereferenceable(16) %2, ptr noundef @.str.5) #15
  br label %47

11:                                               ; preds = %1
  call void @_ZNSt17basic_string_viewIcSt11char_traitsIcEEC2EPKc(ptr noundef nonnull align 8 dereferenceable(16) %2, ptr noundef @.str.6) #15
  br label %47

12:                                               ; preds = %1
  call void @_ZNSt17basic_string_viewIcSt11char_traitsIcEEC2EPKc(ptr noundef nonnull align 8 dereferenceable(16) %2, ptr noundef @.str.7) #15
  br label %47

13:                                               ; preds = %1
  call void @_ZNSt17basic_string_viewIcSt11char_traitsIcEEC2EPKc(ptr noundef nonnull align 8 dereferenceable(16) %2, ptr noundef @.str.8) #15
  br label %47

14:                                               ; preds = %1
  call void @_ZNSt17basic_string_viewIcSt11char_traitsIcEEC2EPKc(ptr noundef nonnull align 8 dereferenceable(16) %2, ptr noundef @.str.9) #15
  br label %47

15:                                               ; preds = %1
  call void @_ZNSt17basic_string_viewIcSt11char_traitsIcEEC2EPKc(ptr noundef nonnull align 8 dereferenceable(16) %2, ptr noundef @.str.10) #15
  br label %47

16:                                               ; preds = %1
  call void @_ZNSt17basic_string_viewIcSt11char_traitsIcEEC2EPKc(ptr noundef nonnull align 8 dereferenceable(16) %2, ptr noundef @.str.11) #15
  br label %47

17:                                               ; preds = %1
  call void @_ZNSt17basic_string_viewIcSt11char_traitsIcEEC2EPKc(ptr noundef nonnull align 8 dereferenceable(16) %2, ptr noundef @.str.12) #15
  br label %47

18:                                               ; preds = %1
  call void @_ZNSt17basic_string_viewIcSt11char_traitsIcEEC2EPKc(ptr noundef nonnull align 8 dereferenceable(16) %2, ptr noundef @.str.13) #15
  br label %47

19:                                               ; preds = %1
  call void @_ZNSt17basic_string_viewIcSt11char_traitsIcEEC2EPKc(ptr noundef nonnull align 8 dereferenceable(16) %2, ptr noundef @.str.14) #15
  br label %47

20:                                               ; preds = %1
  call void @_ZNSt17basic_string_viewIcSt11char_traitsIcEEC2EPKc(ptr noundef nonnull align 8 dereferenceable(16) %2, ptr noundef @.str.15) #15
  br label %47

21:                                               ; preds = %1
  call void @_ZNSt17basic_string_viewIcSt11char_traitsIcEEC2EPKc(ptr noundef nonnull align 8 dereferenceable(16) %2, ptr noundef @.str.16) #15
  br label %47

22:                                               ; preds = %1
  call void @_ZNSt17basic_string_viewIcSt11char_traitsIcEEC2EPKc(ptr noundef nonnull align 8 dereferenceable(16) %2, ptr noundef @.str.17) #15
  br label %47

23:                                               ; preds = %1
  call void @_ZNSt17basic_string_viewIcSt11char_traitsIcEEC2EPKc(ptr noundef nonnull align 8 dereferenceable(16) %2, ptr noundef @.str.18) #15
  br label %47

24:                                               ; preds = %1
  call void @_ZNSt17basic_string_viewIcSt11char_traitsIcEEC2EPKc(ptr noundef nonnull align 8 dereferenceable(16) %2, ptr noundef @.str.19) #15
  br label %47

25:                                               ; preds = %1
  call void @_ZNSt17basic_string_viewIcSt11char_traitsIcEEC2EPKc(ptr noundef nonnull align 8 dereferenceable(16) %2, ptr noundef @.str.20) #15
  br label %47

26:                                               ; preds = %1
  call void @_ZNSt17basic_string_viewIcSt11char_traitsIcEEC2EPKc(ptr noundef nonnull align 8 dereferenceable(16) %2, ptr noundef @.str.21) #15
  br label %47

27:                                               ; preds = %1
  call void @_ZNSt17basic_string_viewIcSt11char_traitsIcEEC2EPKc(ptr noundef nonnull align 8 dereferenceable(16) %2, ptr noundef @.str.22) #15
  br label %47

28:                                               ; preds = %1
  call void @_ZNSt17basic_string_viewIcSt11char_traitsIcEEC2EPKc(ptr noundef nonnull align 8 dereferenceable(16) %2, ptr noundef @.str.23) #15
  br label %47

29:                                               ; preds = %1
  call void @_ZNSt17basic_string_viewIcSt11char_traitsIcEEC2EPKc(ptr noundef nonnull align 8 dereferenceable(16) %2, ptr noundef @.str.24) #15
  br label %47

30:                                               ; preds = %1
  call void @_ZNSt17basic_string_viewIcSt11char_traitsIcEEC2EPKc(ptr noundef nonnull align 8 dereferenceable(16) %2, ptr noundef @.str.25) #15
  br label %47

31:                                               ; preds = %1
  call void @_ZNSt17basic_string_viewIcSt11char_traitsIcEEC2EPKc(ptr noundef nonnull align 8 dereferenceable(16) %2, ptr noundef @.str.26) #15
  br label %47

32:                                               ; preds = %1
  call void @_ZNSt17basic_string_viewIcSt11char_traitsIcEEC2EPKc(ptr noundef nonnull align 8 dereferenceable(16) %2, ptr noundef @.str.27) #15
  br label %47

33:                                               ; preds = %1
  call void @_ZNSt17basic_string_viewIcSt11char_traitsIcEEC2EPKc(ptr noundef nonnull align 8 dereferenceable(16) %2, ptr noundef @.str.28) #15
  br label %47

34:                                               ; preds = %1
  call void @_ZNSt17basic_string_viewIcSt11char_traitsIcEEC2EPKc(ptr noundef nonnull align 8 dereferenceable(16) %2, ptr noundef @.str.29) #15
  br label %47

35:                                               ; preds = %1
  call void @_ZNSt17basic_string_viewIcSt11char_traitsIcEEC2EPKc(ptr noundef nonnull align 8 dereferenceable(16) %2, ptr noundef @.str.30) #15
  br label %47

36:                                               ; preds = %1
  call void @_ZNSt17basic_string_viewIcSt11char_traitsIcEEC2EPKc(ptr noundef nonnull align 8 dereferenceable(16) %2, ptr noundef @.str.31) #15
  br label %47

37:                                               ; preds = %1
  call void @_ZNSt17basic_string_viewIcSt11char_traitsIcEEC2EPKc(ptr noundef nonnull align 8 dereferenceable(16) %2, ptr noundef @.str.32) #15
  br label %47

38:                                               ; preds = %1
  call void @_ZNSt17basic_string_viewIcSt11char_traitsIcEEC2EPKc(ptr noundef nonnull align 8 dereferenceable(16) %2, ptr noundef @.str.33) #15
  br label %47

39:                                               ; preds = %1
  call void @_ZNSt17basic_string_viewIcSt11char_traitsIcEEC2EPKc(ptr noundef nonnull align 8 dereferenceable(16) %2, ptr noundef @.str.34) #15
  br label %47

40:                                               ; preds = %1
  call void @_ZNSt17basic_string_viewIcSt11char_traitsIcEEC2EPKc(ptr noundef nonnull align 8 dereferenceable(16) %2, ptr noundef @.str.35) #15
  br label %47

41:                                               ; preds = %1
  call void @_ZNSt17basic_string_viewIcSt11char_traitsIcEEC2EPKc(ptr noundef nonnull align 8 dereferenceable(16) %2, ptr noundef @.str.36) #15
  br label %47

42:                                               ; preds = %1
  call void @_ZNSt17basic_string_viewIcSt11char_traitsIcEEC2EPKc(ptr noundef nonnull align 8 dereferenceable(16) %2, ptr noundef @.str.37) #15
  br label %47

43:                                               ; preds = %1
  call void @_ZNSt17basic_string_viewIcSt11char_traitsIcEEC2EPKc(ptr noundef nonnull align 8 dereferenceable(16) %2, ptr noundef @.str.38) #15
  br label %47

44:                                               ; preds = %1
  call void @_ZNSt17basic_string_viewIcSt11char_traitsIcEEC2EPKc(ptr noundef nonnull align 8 dereferenceable(16) %2, ptr noundef @.str.39) #15
  br label %47

45:                                               ; preds = %1
  call void @_ZNSt17basic_string_viewIcSt11char_traitsIcEEC2EPKc(ptr noundef nonnull align 8 dereferenceable(16) %2, ptr noundef @.str.40) #15
  br label %47

46:                                               ; preds = %1
  call void @_ZNSt17basic_string_viewIcSt11char_traitsIcEEC2EPKc(ptr noundef nonnull align 8 dereferenceable(16) %2, ptr noundef @.str.41) #15
  br label %47

47:                                               ; preds = %46, %45, %44, %43, %42, %41, %40, %39, %38, %37, %36, %35, %34, %33, %32, %31, %30, %29, %28, %27, %26, %25, %24, %23, %22, %21, %20, %19, %18, %17, %16, %15, %14, %13, %12, %11, %10, %9, %8, %7, %6, %5
  %48 = load { i64, ptr }, ptr %2, align 8
  ret { i64, ptr } %48
}

; Function Attrs: mustprogress nounwind uwtable
define noundef nonnull align 8 dereferenceable(8) ptr @_ZN6evmonelsERSoNS_18EOFValidationErrorE(ptr noundef nonnull align 8 dereferenceable(8) %0, i32 noundef %1) #0 {
  %3 = alloca ptr, align 8
  %4 = alloca i32, align 4
  %5 = alloca %"class.std::basic_string_view.9", align 8
  store ptr %0, ptr %3, align 8, !tbaa !115
  store i32 %1, ptr %4, align 4, !tbaa !87
  %6 = load ptr, ptr %3, align 8, !tbaa !115, !nonnull !24, !align !25
  %7 = load i32, ptr %4, align 4, !tbaa !87
  %8 = call { i64, ptr } @_ZN6evmone17get_error_messageENS_18EOFValidationErrorE(i32 noundef %7) #15
  %9 = getelementptr inbounds nuw { i64, ptr }, ptr %5, i32 0, i32 0
  %10 = extractvalue { i64, ptr } %8, 0
  store i64 %10, ptr %9, align 8
  %11 = getelementptr inbounds nuw { i64, ptr }, ptr %5, i32 0, i32 1
  %12 = extractvalue { i64, ptr } %8, 1
  store ptr %12, ptr %11, align 8
  %13 = getelementptr inbounds nuw { i64, ptr }, ptr %5, i32 0, i32 0
  %14 = load i64, ptr %13, align 8
  %15 = getelementptr inbounds nuw { i64, ptr }, ptr %5, i32 0, i32 1
  %16 = load ptr, ptr %15, align 8
  %17 = call noundef nonnull align 8 dereferenceable(8) ptr @_ZStlsIcSt11char_traitsIcEERSt13basic_ostreamIT_T0_ES6_St17basic_string_viewIS3_S4_E(ptr noundef nonnull align 8 dereferenceable(8) %6, i64 %14, ptr %16)
  %18 = load ptr, ptr %3, align 8, !tbaa !115, !nonnull !24, !align !25
  ret ptr %18
}