; Function Attrs: mustprogress nounwind uwtable
define noundef nonnull align 8 dereferenceable(8) ptr @_ZN6evmonelsERSoNS_18EOFValidationErrorE(ptr noundef nonnull returned align 8 dereferenceable(8) %0, i32 noundef %1) local_unnamed_addr #3 {
  %3 = icmp ult i32 %1, 41
  br i1 %3, label %switch.lookup, label %_ZN6evmone17get_error_messageENS_18EOFValidationErrorE.exit

switch.lookup:                                    ; preds = %2
  %4 = zext nneg i32 %1 to i64
  %switch.gep = getelementptr inbounds nuw ptr, ptr @switch.table._ZN6evmonelsERSoNS_18EOFValidationErrorE, i64 %4
  %switch.load = load ptr, ptr %switch.gep, align 8
  %5 = zext nneg i32 %1 to i64
  %switch.gep2 = getelementptr inbounds nuw i64, ptr @switch.table._ZN6evmonelsERSoNS_18EOFValidationErrorE.121, i64 %5
  %switch.load3 = load i64, ptr %switch.gep2, align 8
  br label %_ZN6evmone17get_error_messageENS_18EOFValidationErrorE.exit

_ZN6evmone17get_error_messageENS_18EOFValidationErrorE.exit: ; preds = %2, %switch.lookup
  %.sroa.43.0.i = phi ptr [ %switch.load, %switch.lookup ], [ @.str.41, %2 ]
  %.sroa.0.0.i = phi i64 [ %switch.load3, %switch.lookup ], [ 9, %2 ]
  %6 = tail call noundef nonnull align 8 dereferenceable(8) ptr @_ZSt16__ostream_insertIcSt11char_traitsIcEERSt13basic_ostreamIT_T0_ES6_PKS3_l(ptr noundef nonnull align 8 dereferenceable(8) %0, ptr noundef nonnull %.sroa.43.0.i, i64 noundef %.sroa.0.0.i) #17
  ret ptr %0
}